target datalayout = "e-m:e-p270:32:32-p271:32:32-p272:64:64-i64:64-i128:128-f80:128-n8:16:32:64-S128"
target triple = "x86_64-pc-linux-gnu"

%struct.cli_exe_section = type { i32, i32, i32, i32, i32, i32, i32, i32, i32 }
%struct.pe_image_file_hdr = type { i32, i16, i16, i32, i32, i32, i16, i16 }

@.str = private unnamed_addr constant [28 x i8] c"yC: offset: %x, length: %x\0A\00", align 1
@.str.1 = private unnamed_addr constant [37 x i8] c"yC: decrypting decryptor on sect %d\0A\00", align 1
@.str.2 = private unnamed_addr constant [23 x i8] c"yC: decrypting sect%d\0A\00", align 1
@.str.3 = private unnamed_addr constant [35 x i8] c"yC: bad emulation length limit %u\0A\00", align 1
@.str.4 = private unnamed_addr constant [32 x i8] c"yC: Cannot write unpacked file\0A\00", align 1

; Function Attrs: nounwind uwtable
define i32 @yc_decrypt(ptr noundef %0, ptr noundef %1, i32 noundef %2, ptr noundef %3, i32 noundef %4, i32 noundef %5, i32 noundef %6, i32 noundef %7, i16 noundef signext %8) #0 {
  %10 = alloca i32, align 4
  %11 = alloca ptr, align 8
  %12 = alloca ptr, align 8
  %13 = alloca i32, align 4
  %14 = alloca ptr, align 8
  %15 = alloca i32, align 4
  %16 = alloca i32, align 4
  %17 = alloca i32, align 4
  %18 = alloca i32, align 4
  %19 = alloca i16, align 2
  %20 = alloca i32, align 4
  %21 = alloca i32, align 4
  %22 = alloca ptr, align 8
  %23 = alloca ptr, align 8
  %24 = alloca i32, align 4
  %25 = alloca i32, align 4
  %26 = alloca i32, align 4
  store ptr %0, ptr %11, align 8
  store ptr %1, ptr %12, align 8
  store i32 %2, ptr %13, align 4
  store ptr %3, ptr %14, align 8
  store i32 %4, ptr %15, align 4
  store i32 %5, ptr %16, align 4
  store i32 %6, ptr %17, align 4
  store i32 %7, ptr %18, align 4
  store i16 %8, ptr %19, align 2
  %27 = load ptr, ptr %14, align 8
  %28 = load i32, ptr %15, align 4
  %29 = zext i32 %28 to i64
  %30 = getelementptr inbounds %struct.cli_exe_section, ptr %27, i64 %29
  %31 = getelementptr inbounds %struct.cli_exe_section, ptr %30, i32 0, i32 2
  %32 = load i32, ptr %31, align 4
  %33 = load i16, ptr %19, align 2
  %34 = sext i16 %33 to i32
  %35 = add i32 %32, %34
  store i32 %35, ptr %20, align 4
  %36 = load ptr, ptr %12, align 8
  %37 = load i32, ptr %16, align 4
  %38 = zext i32 %37 to i64
  %39 = getelementptr inbounds i8, ptr %36, i64 %38
  store ptr %39, ptr %22, align 8
  %40 = load ptr, ptr %22, align 8
  %41 = load ptr, ptr %22, align 8
  %42 = getelementptr inbounds %struct.pe_image_file_hdr, ptr %41, i32 0, i32 6
  %43 = load i16, ptr %42, align 4
  %44 = zext i16 %43 to i32
  %45 = sext i32 %44 to i64
  %46 = getelementptr inbounds i8, ptr %40, i64 %45
  %47 = getelementptr inbounds i8, ptr %46, i64 24
  store ptr %47, ptr %23, align 8
  %48 = load i32, ptr %13, align 4
  store i32 %48, ptr %25, align 4
  %49 = load i16, ptr %19, align 2
  %50 = sext i16 %49 to i32
  %51 = load i32, ptr %18, align 4
  call void (ptr, ...) @cli_dbgmsg(ptr noundef @.str, i32 noundef %50, i32 noundef %51)
  %52 = load i32, ptr %15, align 4
  call void (ptr, ...) @cli_dbgmsg(ptr noundef @.str.1, i32 noundef %52)
  %53 = load ptr, ptr %11, align 8
  %54 = load ptr, ptr %12, align 8
  %55 = load i32, ptr %13, align 4
  %56 = load ptr, ptr %12, align 8
  %57 = load i32, ptr %20, align 4
  %58 = zext i32 %57 to i64
  %59 = getelementptr inbounds i8, ptr %56, i64 %58
  %60 = getelementptr inbounds i8, ptr %59, i64 147
  %61 = load ptr, ptr %12, align 8
  %62 = load i32, ptr %20, align 4
  %63 = zext i32 %62 to i64
  %64 = getelementptr inbounds i8, ptr %61, i64 %63
  %65 = getelementptr inbounds i8, ptr %64, i64 198
  %66 = load i32, ptr %18, align 4
  %67 = load i32, ptr %18, align 4
  %68 = call i32 @yc_poly_emulator(ptr noundef %53, ptr noundef %54, i32 noundef %55, ptr noundef %60, ptr noundef %65, i32 noundef %66, i32 noundef %67)
  switch i32 %68, label %71 [
    i32 2, label %69
    i32 1, label %70
  ]

69:                                               ; preds = %9
  store i32 1, ptr %10, align 4
  br label %226

70:                                               ; preds = %9
  store i32 7, ptr %10, align 4
  br label %226

71:                                               ; preds = %9
  %72 = load ptr, ptr %14, align 8
  %73 = load i32, ptr %15, align 4
  %74 = zext i32 %73 to i64
  %75 = getelementptr inbounds %struct.cli_exe_section, ptr %72, i64 %74
  %76 = getelementptr inbounds %struct.cli_exe_section, ptr %75, i32 0, i32 8
  %77 = load i32, ptr %76, align 4
  %78 = load i32, ptr %13, align 4
  %79 = sub i32 %78, %77
  store i32 %79, ptr %13, align 4
  store i32 0, ptr %21, align 4
  br label %80

80:                                               ; preds = %184, %71
  %81 = load i32, ptr %21, align 4
  %82 = load i32, ptr %15, align 4
  %83 = icmp ult i32 %81, %82
  br i1 %83, label %84, label %187

84:                                               ; preds = %80
  %85 = load ptr, ptr %23, align 8
  %86 = load i32, ptr %21, align 4
  %87 = mul i32 %86, 40
  %88 = zext i32 %87 to i64
  %89 = getelementptr inbounds i8, ptr %85, i64 %88
  %90 = load i32, ptr %89, align 1
  store i32 %90, ptr %26, align 4
  %91 = load ptr, ptr %14, align 8
  %92 = load i32, ptr %21, align 4
  %93 = zext i32 %92 to i64
  %94 = getelementptr inbounds %struct.cli_exe_section, ptr %91, i64 %93
  %95 = getelementptr inbounds %struct.cli_exe_section, ptr %94, i32 0, i32 2
  %96 = load i32, ptr %95, align 4
  %97 = icmp ne i32 %96, 0
  br i1 %97, label %98, label %134

98:                                               ; preds = %84
  %99 = load ptr, ptr %14, align 8
  %100 = load i32, ptr %21, align 4
  %101 = zext i32 %100 to i64
  %102 = getelementptr inbounds %struct.cli_exe_section, ptr %99, i64 %101
  %103 = getelementptr inbounds %struct.cli_exe_section, ptr %102, i32 0, i32 3
  %104 = load i32, ptr %103, align 4
  %105 = icmp ne i32 %104, 0
  br i1 %105, label %106, label %134

106:                                              ; preds = %98
  %107 = load i32, ptr %26, align 4
  %108 = icmp eq i32 %107, 1668445042
  br i1 %108, label %134, label %109

109:                                              ; preds = %106
  %110 = load i32, ptr %26, align 4
  %111 = icmp eq i32 %110, 1920168494
  br i1 %111, label %134, label %112

112:                                              ; preds = %109
  %113 = load i32, ptr %26, align 4
  %114 = icmp eq i32 %113, 1869374834
  br i1 %114, label %134, label %115

115:                                              ; preds = %112
  %116 = load i32, ptr %26, align 4
  %117 = icmp eq i32 %116, 1818587694
  br i1 %117, label %134, label %118

118:                                              ; preds = %115
  %119 = load i32, ptr %26, align 4
  %120 = icmp eq i32 %119, 1633969454
  br i1 %120, label %134, label %121

121:                                              ; preds = %118
  %122 = load i32, ptr %26, align 4
  %123 = icmp eq i32 %122, 1633972782
  br i1 %123, label %134, label %124

124:                                              ; preds = %121
  %125 = load i32, ptr %26, align 4
  %126 = icmp eq i32 %125, 1633970478
  br i1 %126, label %134, label %127

127:                                              ; preds = %124
  %128 = load i32, ptr %26, align 4
  %129 = icmp eq i32 %128, 1936487470
  br i1 %129, label %134, label %130

130:                                              ; preds = %127
  %131 = load i32, ptr %26, align 4
  %132 = and i32 %131, 65535
  %133 = icmp eq i32 %132, 17273
  br i1 %133, label %134, label %135

134:                                              ; preds = %130, %127, %124, %121, %118, %115, %112, %109, %106, %98, %84
  br label %184

135:                                              ; preds = %130
  %136 = load i32, ptr %21, align 4
  call void (ptr, ...) @cli_dbgmsg(ptr noundef @.str.2, i32 noundef %136)
  %137 = load i32, ptr %13, align 4
  %138 = load ptr, ptr %14, align 8
  %139 = load i32, ptr %21, align 4
  %140 = zext i32 %139 to i64
  %141 = getelementptr inbounds %struct.cli_exe_section, ptr %138, i64 %140
  %142 = getelementptr inbounds %struct.cli_exe_section, ptr %141, i32 0, i32 2
  %143 = load i32, ptr %142, align 4
  %144 = sub i32 %137, %143
  store i32 %144, ptr %24, align 4
  %145 = load i32, ptr %24, align 4
  %146 = load i32, ptr %13, align 4
  %147 = icmp ugt i32 %145, %146
  br i1 %147, label %148, label %150

148:                                              ; preds = %135
  %149 = load i32, ptr %24, align 4
  call void (ptr, ...) @cli_dbgmsg(ptr noundef @.str.3, i32 noundef %149)
  store i32 1, ptr %10, align 4
  br label %226

150:                                              ; preds = %135
  %151 = load ptr, ptr %11, align 8
  %152 = load ptr, ptr %12, align 8
  %153 = load i32, ptr %25, align 4
  %154 = load ptr, ptr %12, align 8
  %155 = load i32, ptr %20, align 4
  %156 = zext i32 %155 to i64
  %157 = getelementptr inbounds i8, ptr %154, i64 %156
  %158 = load i16, ptr %19, align 2
  %159 = sext i16 %158 to i32
  %160 = icmp eq i32 %159, -24
  %161 = select i1 %160, i32 1002, i32 1111
  %162 = sext i32 %161 to i64
  %163 = getelementptr inbounds i8, ptr %157, i64 %162
  %164 = load ptr, ptr %12, align 8
  %165 = load ptr, ptr %14, align 8
  %166 = load i32, ptr %21, align 4
  %167 = zext i32 %166 to i64
  %168 = getelementptr inbounds %struct.cli_exe_section, ptr %165, i64 %167
  %169 = getelementptr inbounds %struct.cli_exe_section, ptr %168, i32 0, i32 2
  %170 = load i32, ptr %169, align 4
  %171 = zext i32 %170 to i64
  %172 = getelementptr inbounds i8, ptr %164, i64 %171
  %173 = load ptr, ptr %14, align 8
  %174 = load i32, ptr %21, align 4
  %175 = zext i32 %174 to i64
  %176 = getelementptr inbounds %struct.cli_exe_section, ptr %173, i64 %175
  %177 = getelementptr inbounds %struct.cli_exe_section, ptr %176, i32 0, i32 8
  %178 = load i32, ptr %177, align 4
  %179 = load i32, ptr %24, align 4
  %180 = call i32 @yc_poly_emulator(ptr noundef %151, ptr noundef %152, i32 noundef %153, ptr noundef %163, ptr noundef %172, i32 noundef %178, i32 noundef %179)
  switch i32 %180, label %183 [
    i32 2, label %181
    i32 1, label %182
  ]

181:                                              ; preds = %150
  store i32 1, ptr %10, align 4
  br label %226

182:                                              ; preds = %150
  store i32 7, ptr %10, align 4
  br label %226

183:                                              ; preds = %150
  br label %184

184:                                              ; preds = %183, %134
  %185 = load i32, ptr %21, align 4
  %186 = add i32 %185, 1
  store i32 %186, ptr %21, align 4
  br label %80

187:                                              ; preds = %80
  %188 = load i32, ptr %15, align 4
  %189 = trunc i32 %188 to i16
  %190 = load ptr, ptr %22, align 8
  %191 = getelementptr inbounds %struct.pe_image_file_hdr, ptr %190, i32 0, i32 2
  store i16 %189, ptr %191, align 2
  %192 = load ptr, ptr %22, align 8
  %193 = getelementptr inbounds i8, ptr %192, i64 24
  %194 = getelementptr inbounds i8, ptr %193, i64 104
  call void @llvm.memset.p0.i64(ptr align 1 %194, i8 0, i64 8, i1 false)
  %195 = load ptr, ptr %12, align 8
  %196 = load i32, ptr %20, align 4
  %197 = zext i32 %196 to i64
  %198 = getelementptr inbounds i8, ptr %195, i64 %197
  %199 = getelementptr inbounds i8, ptr %198, i64 2575
  %200 = load i32, ptr %199, align 1
  %201 = load ptr, ptr %22, align 8
  %202 = getelementptr inbounds i8, ptr %201, i64 24
  %203 = getelementptr inbounds i8, ptr %202, i64 16
  store i32 %200, ptr %203, align 1
  %204 = load ptr, ptr %22, align 8
  %205 = getelementptr inbounds i8, ptr %204, i64 24
  %206 = getelementptr inbounds i8, ptr %205, i64 56
  %207 = load i32, ptr %206, align 1
  %208 = load ptr, ptr %14, align 8
  %209 = load i32, ptr %15, align 4
  %210 = zext i32 %209 to i64
  %211 = getelementptr inbounds %struct.cli_exe_section, ptr %208, i64 %210
  %212 = getelementptr inbounds %struct.cli_exe_section, ptr %211, i32 0, i32 1
  %213 = load i32, ptr %212, align 4
  %214 = sub i32 %207, %213
  %215 = load ptr, ptr %22, align 8
  %216 = getelementptr inbounds i8, ptr %215, i64 24
  %217 = getelementptr inbounds i8, ptr %216, i64 56
  store i32 %214, ptr %217, align 1
  %218 = load i32, ptr %17, align 4
  %219 = load ptr, ptr %12, align 8
  %220 = load i32, ptr %13, align 4
  %221 = zext i32 %220 to i64
  %222 = call i64 @cli_writen(i32 noundef %218, ptr noundef %219, i64 noundef %221)
  %223 = icmp eq i64 %222, -1
  br i1 %223, label %224, label %225

224:                                              ; preds = %187
  call void (ptr, ...) @cli_dbgmsg(ptr noundef @.str.4)
  store i32 7, ptr %10, align 4
  br label %226

225:                                              ; preds = %187
  store i32 0, ptr %10, align 4
  br label %226

226:                                              ; preds = %225, %224, %182, %181, %148, %70, %69
  %227 = load i32, ptr %10, align 4
  ret i32 %227
}