; Function Attrs: nounwind uwtable
define noundef i32 @yc_decrypt(ptr noundef %0, ptr noundef %1, i32 noundef %2, ptr nocapture noundef readonly %3, i32 noundef %4, i32 noundef %5, i32 noundef %6, i32 noundef %7, i16 noundef signext %8) local_unnamed_addr #0 {
  %10 = zext i32 %4 to i64
  %11 = getelementptr inbounds %struct.cli_exe_section, ptr %3, i64 %10
  %12 = getelementptr inbounds i8, ptr %11, i64 8
  %13 = load i32, ptr %12, align 4
  %14 = sext i16 %8 to i32
  %15 = add i32 %13, %14
  %16 = zext i32 %5 to i64
  %17 = getelementptr inbounds i8, ptr %1, i64 %16
  %18 = getelementptr inbounds i8, ptr %17, i64 20
  %19 = load i16, ptr %18, align 4
  %20 = zext i16 %19 to i64
  %21 = getelementptr inbounds i8, ptr %17, i64 %20
  %22 = getelementptr inbounds i8, ptr %21, i64 24
  tail call void (ptr, ...) @cli_dbgmsg(ptr noundef nonnull @.str, i32 noundef %14, i32 noundef %7) #3
  tail call void (ptr, ...) @cli_dbgmsg(ptr noundef nonnull @.str.1, i32 noundef %4) #3
  %23 = zext i32 %15 to i64
  %24 = getelementptr inbounds i8, ptr %1, i64 %23
  %25 = getelementptr inbounds i8, ptr %24, i64 147
  %26 = getelementptr inbounds i8, ptr %24, i64 198
  %27 = tail call fastcc i32 @yc_poly_emulator(ptr noundef %0, ptr noundef %1, i32 noundef %2, ptr noundef nonnull %25, ptr noundef nonnull %26, i32 noundef %7, i32 noundef %7), !range !4
  switch i32 %27, label %29 [
    i32 2, label %.loopexit
    i32 1, label %28
  ]

28:                                               ; preds = %9
  br label %.loopexit

29:                                               ; preds = %9
  %30 = getelementptr inbounds i8, ptr %11, i64 32
  %31 = load i32, ptr %30, align 4
  %32 = sub i32 %2, %31
  %.not95 = icmp eq i32 %4, 0
  br i1 %.not95, label %._crit_edge, label %.lr.ph

.lr.ph:                                           ; preds = %29
  %33 = icmp eq i16 %8, -24
  %34 = select i1 %33, i64 1002, i64 1111
  %35 = getelementptr inbounds i8, ptr %24, i64 %34
  br label %36

36:                                               ; preds = %.lr.ph, %68
  %indvars.iv = phi i64 [ 0, %.lr.ph ], [ %indvars.iv.next, %68 ]
  %37 = getelementptr inbounds %struct.cli_exe_section, ptr %3, i64 %indvars.iv
  %38 = getelementptr inbounds i8, ptr %37, i64 8
  %39 = load i32, ptr %38, align 4
  %.not = icmp eq i32 %39, 0
  br i1 %.not, label %68, label %40

40:                                               ; preds = %36
  %41 = mul i64 %indvars.iv, 40
  %42 = and i64 %41, 4294967288
  %43 = getelementptr inbounds i8, ptr %22, i64 %42
  %44 = load i32, ptr %43, align 1
  %45 = getelementptr inbounds i8, ptr %37, i64 12
  %46 = load i32, ptr %45, align 4
  %47 = icmp eq i32 %46, 0
  %48 = insertelement <8 x i32> poison, i32 %44, i64 0
  %49 = shufflevector <8 x i32> %48, <8 x i32> poison, <8 x i32> zeroinitializer
  %.fr = freeze <8 x i32> %49
  %50 = icmp eq <8 x i32> %.fr, <i32 1920168494, i32 1668445042, i32 1869374834, i32 1818587694, i32 1633969454, i32 1633972782, i32 1633970478, i32 1936487470>
  %51 = and i32 %44, 65535
  %52 = icmp eq i32 %51, 17273
  %53 = bitcast <8 x i1> %50 to i8
  %54 = icmp ne i8 %53, 0
  %55 = or i1 %47, %54
  %op.rdx105 = select i1 %55, i1 true, i1 %52
  br i1 %op.rdx105, label %68, label %56

56:                                               ; preds = %40
  %57 = trunc nuw i64 %indvars.iv to i32
  tail call void (ptr, ...) @cli_dbgmsg(ptr noundef nonnull @.str.2, i32 noundef %57) #3
  %58 = load i32, ptr %38, align 4
  %59 = sub i32 %32, %58
  %60 = icmp ugt i32 %58, %32
  br i1 %60, label %61, label %62

61:                                               ; preds = %56
  tail call void (ptr, ...) @cli_dbgmsg(ptr noundef nonnull @.str.3, i32 noundef %59) #3
  br label %.loopexit

62:                                               ; preds = %56
  %63 = zext i32 %58 to i64
  %64 = getelementptr inbounds i8, ptr %1, i64 %63
  %65 = getelementptr inbounds i8, ptr %37, i64 32
  %66 = load i32, ptr %65, align 4
  %67 = tail call fastcc i32 @yc_poly_emulator(ptr noundef %0, ptr noundef nonnull %1, i32 noundef %2, ptr noundef nonnull %35, ptr noundef %64, i32 noundef %66, i32 noundef %59), !range !4
  switch i32 %67, label %68 [
    i32 2, label %.loopexit.loopexit
    i32 1, label %.loopexit
  ]

68:                                               ; preds = %62, %36, %40
  %indvars.iv.next = add nuw nsw i64 %indvars.iv, 1
  %exitcond.not = icmp eq i64 %indvars.iv.next, %10
  br i1 %exitcond.not, label %._crit_edge, label %36

._crit_edge:                                      ; preds = %68, %29
  %69 = trunc i32 %4 to i16
  %70 = getelementptr inbounds i8, ptr %17, i64 6
  store i16 %69, ptr %70, align 2
  %71 = getelementptr inbounds i8, ptr %17, i64 128
  store i64 0, ptr %71, align 1
  %72 = getelementptr inbounds i8, ptr %24, i64 2575
  %73 = load i32, ptr %72, align 1
  %74 = getelementptr inbounds i8, ptr %17, i64 40
  store i32 %73, ptr %74, align 1
  %75 = getelementptr inbounds i8, ptr %17, i64 80
  %76 = load i32, ptr %75, align 1
  %77 = getelementptr inbounds i8, ptr %11, i64 4
  %78 = load i32, ptr %77, align 4
  %79 = sub i32 %76, %78
  store i32 %79, ptr %75, align 1
  %80 = zext i32 %32 to i64
  %81 = tail call i64 @cli_writen(i32 noundef %6, ptr noundef %1, i64 noundef %80) #3
  %82 = icmp eq i64 %81, -1
  br i1 %82, label %83, label %.loopexit

83:                                               ; preds = %._crit_edge
  tail call void (ptr, ...) @cli_dbgmsg(ptr noundef nonnull @.str.4) #3
  br label %.loopexit

.loopexit.loopexit:                               ; preds = %62
  br label %.loopexit

.loopexit:                                        ; preds = %62, %.loopexit.loopexit, %._crit_edge, %9, %83, %61, %28
  %.0 = phi i32 [ 1, %61 ], [ 7, %83 ], [ 7, %28 ], [ 1, %9 ], [ 0, %._crit_edge ], [ 1, %.loopexit.loopexit ], [ 7, %62 ]
  ret i32 %.0
}